; Function Attrs: mustprogress nofree norecurse nosync nounwind memory(readwrite, inaccessiblemem: none) uwtable
define internal void @_ZL10evaluate_zRKN3gmx20SelMethodEvalContextEP13gmx_ana_pos_tP18gmx_ana_selvalue_tPv(ptr nonnull readnone align 8 captures(none) %0, ptr noundef readonly captures(none) %1, ptr noundef captures(none) initializes((4, 8)) %2, ptr readnone captures(none) %3) #3 {
  %5 = getelementptr inbounds nuw i8, ptr %1, i64 48
  %6 = load i32, ptr %5, align 8, !tbaa !185
  %7 = getelementptr inbounds nuw i8, ptr %2, i64 4
  store i32 %6, ptr %7, align 4, !tbaa !12
  %8 = getelementptr inbounds nuw i8, ptr %2, i64 8
  %9 = load ptr, ptr %8, align 8, !tbaa !4
  %10 = icmp sgt i32 %6, 0
  br i1 %10, label %.lr.ph.i, label %_ZL14evaluate_coordPfP13gmx_ana_pos_ti.exit

.lr.ph.i:                                         ; preds = %4
  %11 = load ptr, ptr %1, align 8, !tbaa !191
  %wide.trip.count.i = zext nneg i32 %6 to i64
  br label %12

12:                                               ; preds = %12, %.lr.ph.i
  %indvars.iv.i = phi i64 [ 0, %.lr.ph.i ], [ %indvars.iv.next.i, %12 ]
  %13 = getelementptr inbounds nuw [3 x float], ptr %11, i64 %indvars.iv.i, i64 2
  %14 = load float, ptr %13, align 4, !tbaa !173
  %15 = getelementptr inbounds nuw float, ptr %9, i64 %indvars.iv.i
  store float %14, ptr %15, align 4, !tbaa !173
  %indvars.iv.next.i = add nuw nsw i64 %indvars.iv.i, 1
  %exitcond.not.i = icmp eq i64 %indvars.iv.next.i, %wide.trip.count.i
  br i1 %exitcond.not.i, label %_ZL14evaluate_coordPfP13gmx_ana_pos_ti.exit, label %12, !llvm.loop !192

_ZL14evaluate_coordPfP13gmx_ana_pos_ti.exit:      ; preds = %12, %4
  ret void
}